; Function Attrs: mustprogress uwtable
define void @_ZN2cv3dnn14dnn4_v202412233Net8setParamEiiRKNS_3MatE(ptr noundef nonnull readonly align 8 captures(none) dereferenceable(16) %0, i32 noundef %1, i32 noundef %2, ptr noundef nonnull align 8 dereferenceable(96) %3) local_unnamed_addr #3 align 2 personality ptr @__gxx_personality_v0 {
  %5 = alloca %"class.std::__cxx11::basic_string", align 8
  %6 = alloca %"class.std::allocator", align 1
  %7 = load ptr, ptr %0, align 8, !tbaa !17
  %.not = icmp eq ptr %7, null
  br i1 %.not, label %8, label %18

8:                                                ; preds = %4
  call void @llvm.lifetime.start.p0(i64 32, ptr nonnull %5) #21
  call void @llvm.lifetime.start.p0(i64 1, ptr nonnull %6) #21
  call void @_ZNSt7__cxx1112basic_stringIcSt11char_traitsIcESaIcEEC2EPKcRKS3_(ptr noundef nonnull align 8 dereferenceable(32) %5, ptr noundef nonnull @.str.2, ptr noundef nonnull align 1 dereferenceable(1) %6)
  invoke void @_ZN2cv5errorEiRKNSt7__cxx1112basic_stringIcSt11char_traitsIcESaIcEEEPKcS9_i(i32 noundef -215, ptr noundef nonnull align 8 dereferenceable(32) %5, ptr noundef nonnull @__func__._ZN2cv3dnn14dnn4_v202412233Net8setParamEiiRKNS_3MatE, ptr noundef nonnull @.str.1, i32 noundef 191) #22
          to label %9 unwind label %10

9:                                                ; preds = %8
  unreachable

10:                                               ; preds = %8
  %11 = landingpad { ptr, i32 }
          cleanup
  %12 = load ptr, ptr %5, align 8, !tbaa !27
  %13 = getelementptr inbounds nuw i8, ptr %5, i64 16
  %14 = icmp eq ptr %12, %13
  br i1 %14, label %_ZNKSt7__cxx1112basic_stringIcSt11char_traitsIcESaIcEE11_M_is_localEv.exit.thread.i.i, label %_ZNKSt7__cxx1112basic_stringIcSt11char_traitsIcESaIcEE11_M_is_localEv.exit.i.i

_ZNKSt7__cxx1112basic_stringIcSt11char_traitsIcESaIcEE11_M_is_localEv.exit.thread.i.i: ; preds = %10
  %15 = getelementptr inbounds nuw i8, ptr %5, i64 8
  %16 = load i64, ptr %15, align 8, !tbaa !32
  %17 = icmp ult i64 %16, 16
  call void @llvm.assume(i1 %17)
  br label %_ZNSt7__cxx1112basic_stringIcSt11char_traitsIcESaIcEED2Ev.exit

_ZNKSt7__cxx1112basic_stringIcSt11char_traitsIcESaIcEE11_M_is_localEv.exit.i.i: ; preds = %10
  call void @_ZdlPv(ptr noundef %12) #20
  br label %_ZNSt7__cxx1112basic_stringIcSt11char_traitsIcESaIcEED2Ev.exit

_ZNSt7__cxx1112basic_stringIcSt11char_traitsIcESaIcEED2Ev.exit: ; preds = %_ZNKSt7__cxx1112basic_stringIcSt11char_traitsIcESaIcEE11_M_is_localEv.exit.i.i, %_ZNKSt7__cxx1112basic_stringIcSt11char_traitsIcESaIcEE11_M_is_localEv.exit.thread.i.i
  call void @llvm.lifetime.end.p0(i64 1, ptr nonnull %6) #21
  call void @llvm.lifetime.end.p0(i64 32, ptr nonnull %5) #21
  resume { ptr, i32 } %11

18:                                               ; preds = %4
  tail call void @_ZN2cv3dnn14dnn4_v202412233Net4Impl8setParamEiiRKNS_3MatE(ptr noundef nonnull align 8 dereferenceable(504) %7, i32 noundef %1, i32 noundef %2, ptr noundef nonnull align 8 dereferenceable(96) %3)
  ret void
}